; ModuleID = '50/1120.c'
source_filename = "50/1120.c"
target datalayout = "e-m:e-p270:32:32-p271:32:32-p272:64:64-i64:64-f80:128-n8:16:32:64-S128"
target triple = "x86_64-pc-linux-gnu"

@.str = private unnamed_addr constant [3 x i8] c"%d\00", align 1
@.str.1 = private unnamed_addr constant [4 x i8] c"%d\0A\00", align 1

; Function Attrs: noinline nounwind uwtable
define dso_local i32 @main() #0 {
  %1 = alloca i32, align 4
  %2 = alloca i32, align 4
  %3 = alloca i32, align 4
  %4 = alloca i32, align 4
  %5 = alloca i32, align 4
  %6 = alloca i32, align 4
  %7 = alloca i32, align 4
  %8 = alloca [12 x i32], align 16
  store i32 0, i32* %1, align 4
  %9 = call i32 (i8*, ...) @__isoc99_scanf(i8* getelementptr inbounds ([3 x i8], [3 x i8]* @.str, i64 0, i64 0), i32* %2)
  %10 = getelementptr inbounds [12 x i32], [12 x i32]* %8, i64 0, i64 0
  store i32 31, i32* %10, align 16
  %11 = getelementptr inbounds [12 x i32], [12 x i32]* %8, i64 0, i64 2
  store i32 31, i32* %11, align 8
  %12 = getelementptr inbounds [12 x i32], [12 x i32]* %8, i64 0, i64 4
  store i32 31, i32* %12, align 16
  %13 = getelementptr inbounds [12 x i32], [12 x i32]* %8, i64 0, i64 6
  store i32 31, i32* %13, align 8
  %14 = getelementptr inbounds [12 x i32], [12 x i32]* %8, i64 0, i64 7
  store i32 31, i32* %14, align 4
  %15 = getelementptr inbounds [12 x i32], [12 x i32]* %8, i64 0, i64 9
  store i32 31, i32* %15, align 4
  %16 = getelementptr inbounds [12 x i32], [12 x i32]* %8, i64 0, i64 11
  store i32 31, i32* %16, align 4
  %17 = getelementptr inbounds [12 x i32], [12 x i32]* %8, i64 0, i64 1
  store i32 28, i32* %17, align 4
  %18 = getelementptr inbounds [12 x i32], [12 x i32]* %8, i64 0, i64 3
  store i32 30, i32* %18, align 4
  %19 = getelementptr inbounds [12 x i32], [12 x i32]* %8, i64 0, i64 5
  store i32 30, i32* %19, align 4
  %20 = getelementptr inbounds [12 x i32], [12 x i32]* %8, i64 0, i64 8
  store i32 30, i32* %20, align 16
  %21 = getelementptr inbounds [12 x i32], [12 x i32]* %8, i64 0, i64 10
  store i32 30, i32* %21, align 8
  store i32 0, i32* %3, align 4
  br label %22

22:                                               ; preds = %56, %0
  %23 = load i32, i32* %3, align 4
  %24 = icmp slt i32 %23, 12
  br i1 %24, label %25, label %59

25:                                               ; preds = %22
  store i32 0, i32* %5, align 4
  store i32 0, i32* %4, align 4
  br label %26

26:                                               ; preds = %37, %25
  %27 = load i32, i32* %4, align 4
  %28 = load i32, i32* %3, align 4
  %29 = icmp slt i32 %27, %28
  br i1 %29, label %30, label %40

30:                                               ; preds = %26
  %31 = load i32, i32* %4, align 4
  %32 = sext i32 %31 to i64
  %33 = getelementptr inbounds [12 x i32], [12 x i32]* %8, i64 0, i64 %32
  %34 = load i32, i32* %33, align 4
  %35 = load i32, i32* %5, align 4
  %36 = add nsw i32 %35, %34
  store i32 %36, i32* %5, align 4
  br label %37

37:                                               ; preds = %30
  %38 = load i32, i32* %4, align 4
  %39 = add nsw i32 %38, 1
  store i32 %39, i32* %4, align 4
  br label %26

40:                                               ; preds = %26
  %41 = load i32, i32* %5, align 4
  %42 = add nsw i32 %41, 12
  store i32 %42, i32* %5, align 4
  %43 = load i32, i32* %5, align 4
  %44 = srem i32 %43, 7
  store i32 %44, i32* %6, align 4
  %45 = load i32, i32* %6, align 4
  %46 = load i32, i32* %2, align 4
  %47 = add nsw i32 %45, %46
  store i32 %47, i32* %7, align 4
  %48 = load i32, i32* %7, align 4
  %49 = srem i32 %48, 7
  %50 = icmp eq i32 %49, 5
  br i1 %50, label %51, label %55

51:                                               ; preds = %40
  %52 = load i32, i32* %3, align 4
  %53 = add nsw i32 %52, 1
  %54 = call i32 (i8*, ...) @printf(i8* getelementptr inbounds ([4 x i8], [4 x i8]* @.str.1, i64 0, i64 0), i32 %53)
  br label %55

55:                                               ; preds = %51, %40
  br label %56

56:                                               ; preds = %55
  %57 = load i32, i32* %3, align 4
  %58 = add nsw i32 %57, 1
  store i32 %58, i32* %3, align 4
  br label %22

59:                                               ; preds = %22
  ret i32 0
}

declare dso_local i32 @__isoc99_scanf(i8*, ...) #1

declare dso_local i32 @printf(i8*, ...) #1


!llvm.module.flags = !{!0}
!llvm.ident = !{!1}

!0 = !{i32 1, !"wchar_size", i32 4}
!1 = !{!"clang version 10.0.0-4ubuntu1 "}
